(dp1
S'logM_*'
p2
(lp3
F10.68
aF10.43
aF10.470000000000001
aF10.92
aF10.109999999999999
aF10.609999999999999
aF10.359999999999999
aF9.6400000000000006
aF10.58
aF10.609999999999999
aF11.49
aF10.19
aF10.699999999999999
aF10.960000000000001
aF10.31
aF11.050000000000001
aF10.470000000000001
aF10.51
aF11.300000000000001
aF10.93
aF10.09
aF10.050000000000001
aF10.81
aF10.93
aF9.6999999999999993
aF10.35
aF9.7699999999999996
aF10.31
aF10.640000000000001
aF11.109999999999999
aF10.4
aF9.0899999999999999
aF10.77
aF11.119999999999999
aF10.84
aF11.289999999999999
aF10.130000000000001
aF9.3000000000000007
aF10.69
aF10.539999999999999
aF10.140000000000001
aF9.9499999999999993
aF10.01
aF10.52
aF10.68
aF9.7599999999999998
aF10.67
aF10.800000000000001
aF11
aF10.26
aF10.52
aF9.8800000000000008
aF10.369999999999999
aF9.7599999999999998
aF10.75
aF10.140000000000001
aF10.65
aF9.5899999999999999
aF10.66
aF10.6
aF10.83
aF10.57
aF10.9
aF10.67
aF10.35
aF10.710000000000001
aF10.609999999999999
aF10.59
aF10.960000000000001
aF10.24
aF11.24
aF10.199999999999999
aF10.199999999999999
aF10.25
aF10.24
aF10.470000000000001
aF10.34
aF10.109999999999999
aF10.890000000000001
aF10.91
aF9.8900000000000006
aF10.220000000000001
aF10.9
aF10.27
aF10.210000000000001
aF11.08
aF10.960000000000001
aF10.17
aF10.69
aF10.18
aF10.109999999999999
aF9.7599999999999998
aF11.26
aF9.7300000000000004
aF9.8599999999999994
aF10.33
aF10.18
aF11.050000000000001
aF10.380000000000001
aF10.66
aF10.23
aF9.9600000000000009
aF10.48
aF9.9399999999999995
aF10.359999999999999
aF10.16
aF10.140000000000001
aF10.390000000000001
aF10.42
aF10.359999999999999
aF11.31
aF11.140000000000001
aF10.81
aF10.050000000000001
aF10.9
aF11.1
aF10.65
aF10.470000000000001
aF11.039999999999999
aF10.74
aF9.8000000000000007
aF10.76
aF9.5399999999999991
aF10.699999999999999
aF10.18
aF10.710000000000001
aF10.81
aF10.949999999999999
aF10.619999999999999
aF10.470000000000001
aF10.1
aF10.43
aF10.710000000000001
aF9.9299999999999997
aF11.050000000000001
aF9.9000000000000004
aF9.6300000000000008
aF9.2899999999999991
aF8.9000000000000004
aF10.609999999999999
aF10.74
aF10.539999999999999
aF9.8100000000000005
aF10.800000000000001
aF10.09
aF10.1
aF10.23
aF10.710000000000001
aF10.9
aF10.609999999999999
aF10.27
aF10.720000000000001
aF9.5700000000000003
aF9.5899999999999999
aF10.789999999999999
aF10.279999999999999
aF10.35
aF9.8900000000000006
aF10.550000000000001
aF10.640000000000001
aF10.65
aF10.83
aF9.8100000000000005
aF10.449999999999999
aF10.26
aF9.6799999999999997
aF10.27
aF9.6699999999999999
aF10.75
aF10.52
aF10.220000000000001
aF10.43
aF10.73
aF10.67
aF10.57
aF11
aF10.800000000000001
aF10.960000000000001
aF10.42
aF10.779999999999999
aF10.59
aF10.140000000000001
aF10.1
aF10.529999999999999
aF9.8399999999999999
aF10.91
aF10.6
aF10.49
aF10.029999999999999
aF10.09
aF10.59
aF10.25
aF11.24
aF11.06
aF10.369999999999999
aF10.56
aF10.41
aF9.8800000000000008
aF10.390000000000001
aF10.699999999999999
aF10.460000000000001
aF10.74
aF10.83
aF10.710000000000001
aF10.289999999999999
aF9.5700000000000003
aF11.07
aF10.35
aF9.6999999999999993
aF9.2899999999999991
aF10.279999999999999
aF10.43
aF10.41
aF10.449999999999999
aF10.130000000000001
aF10.460000000000001
aF10.869999999999999
aF10.949999999999999
aF10.710000000000001
aF10.300000000000001
aF9.9900000000000002
aF9.5999999999999996
aF10.94
aF10.59
aF10.5
aF10.07
aF10.43
aF10.76
aF10.279999999999999
aF10.76
aF10.81
aF10.039999999999999
aF10.85
aF11.02
aF10.66
aF9.8499999999999996
aF10.609999999999999
aF10.890000000000001
aF10.99
aF10.67
aF10.51
aF10.26
aF11.119999999999999
aF10.029999999999999
aF9.2400000000000002
aF9.3000000000000007
aF9.2899999999999991
aF9.4499999999999993
aF8.9000000000000004
aF8.9600000000000009
aF9.4299999999999997
aF9.1199999999999992
aF9.3599999999999994
aF9.3599999999999994
aF8.6300000000000008
aF11.380000000000001
aF10.41
aF10.140000000000001
aF10.359999999999999
aF10
aF9.9000000000000004
aF9.6199999999999992
aF10.16
aF9.9199999999999999
aF10.34
aF8.9000000000000004
aF10.25
aF10.789999999999999
aF9.8699999999999992
aF9.5199999999999996
aF8.7699999999999996
aF11.48
aF10.92
aF10.33
aF11.17
aF11.43
aF11.02
aF10.720000000000001
aF11.289999999999999
aF10.140000000000001
aF10.59
aF10.93
aF10.69
aF11.44
aF11.33
aF10.52
aF11.289999999999999
aF10.56
aF11.51
aF10.550000000000001
aF11.380000000000001
aF9.7100000000000009
aF9.3699999999999992
aF11.300000000000001
aF10.630000000000001
aF10.85
aF11.81
aF10.99
aF10.73
aF11.35
aF11.289999999999999
aF10.640000000000001
aF10.27
aF11.369999999999999
aF11.550000000000001
aF10.91
aF11.23
aF11.34
aF11.4
aF11.279999999999999
aF11.539999999999999
aF11.449999999999999
aF10.51
aF10.56
aF11
aF10.66
aF10.630000000000001
aF10.619999999999999
aF10.949999999999999
aF10.01
aF10.640000000000001
aF10.5
aF10.960000000000001
aF10.41
aF10.220000000000001
aF10.27
aF10.15
aF10.890000000000001
aF10.23
aF11.18
aF10.48
aF9.8599999999999994
aF9.5600000000000005
aF10.859999999999999
aF10.35
aF10.470000000000001
aF10.02
aF9.9000000000000004
aF10.58
aF10.52
aF10.460000000000001
aF10.67
aF10.210000000000001
aF10.01
aF10.16
aF10.48
aF10.699999999999999
aF10.58
aF10.56
asS'logM_BH'
p4
(lp5
F6.21
aF7.0700000000000003
aF7.6500000000000004
aF8.1099999999999994
aF5.7000000000000002
aF6.5
aF6.7199999999999998
aF6.7599999999999998
aF6.3600000000000003
aF6.5099999999999998
aF7.0300000000000002
aF6.7400000000000002
aF6.8200000000000003
aF7.25
aF7.1100000000000003
aF6.9900000000000002
aF7.7999999999999998
aF6.5899999999999999
aF7.7000000000000002
aF5.8300000000000001
aF6.46
aF6.0800000000000001
aF7.0800000000000001
aF6.75
aF6.4800000000000004
aF7.4000000000000004
aF5.6600000000000001
aF6.2800000000000002
aF6.8799999999999999
aF7.6600000000000001
aF7.0499999999999998
aF6.2599999999999998
aF6.7300000000000004
aF6.8399999999999999
aF6.9900000000000002
aF6.9100000000000001
aF7.7300000000000004
aF5.4000000000000004
aF7.1600000000000001
aF7.0099999999999998
aF5.9800000000000004
aF7.21
aF5.6799999999999997
aF7.1399999999999997
aF7.4000000000000004
aF6.9500000000000002
aF7.3600000000000003
aF6.5599999999999996
aF7.0999999999999996
aF7.2300000000000004
aF6.3099999999999996
aF6.6200000000000001
aF7.0599999999999996
aF5.8099999999999996
aF7.29
aF7.0999999999999996
aF6.7199999999999998
aF6.3499999999999996
aF7.3200000000000003
aF6.6699999999999999
aF7
aF6.4100000000000001
aF7.7599999999999998
aF5.9100000000000001
aF6.5599999999999996
aF6.4000000000000004
aF7.04
aF7.2199999999999998
aF7.5199999999999996
aF5.3600000000000003
aF6.6500000000000004
aF7.04
aF7.29
aF6.9800000000000004
aF6.2800000000000002
aF7.5800000000000001
aF6.4000000000000004
aF6.6900000000000004
aF6.6399999999999997
aF6.8799999999999999
aF5.6299999999999999
aF6.7199999999999998
aF6.4299999999999997
aF6.8899999999999997
aF7.29
aF6.8099999999999996
aF6.4400000000000004
aF6.5899999999999999
aF6.9400000000000004
aF6.4900000000000002
aF7.5300000000000002
aF6.4400000000000004
aF7.0800000000000001
aF7.3200000000000003
aF6.7400000000000002
aF6.0599999999999996
aF5.4400000000000004
aF7.1799999999999997
aF7.4900000000000002
aF7.1900000000000004
aF6.8499999999999996
aF7.0999999999999996
aF6.5199999999999996
aF7.2699999999999996
aF5.9100000000000001
aF6.3499999999999996
aF5.9900000000000002
aF6.5199999999999996
aF6.3300000000000001
aF6.4800000000000004
aF7.6299999999999999
aF6.6399999999999997
aF7
aF7.25
aF8.0299999999999994
aF7.1399999999999997
aF5.7300000000000004
aF6.6900000000000004
aF7.1600000000000001
aF6.4900000000000002
aF6.1799999999999997
aF7.2999999999999998
aF6.96
aF6.1699999999999999
aF5.9100000000000001
aF6.6200000000000001
aF6.6900000000000004
aF7.1600000000000001
aF7.3300000000000001
aF6.6399999999999997
aF6.6200000000000001
aF7.7000000000000002
aF8.0600000000000005
aF6.5599999999999996
aF7.0700000000000003
aF5.3600000000000003
aF6.8399999999999999
aF6.0800000000000001
aF5
aF7.4000000000000004
aF6.8399999999999999
aF6.6399999999999997
aF5.8600000000000003
aF6.54
aF6.6200000000000001
aF6.3499999999999996
aF7.0300000000000002
aF7.3899999999999997
aF6.9100000000000001
aF7.1900000000000004
aF6.1100000000000003
aF7.5999999999999996
aF6.0700000000000003
aF6.6500000000000004
aF7.4400000000000004
aF6.2699999999999996
aF6.4400000000000004
aF5.6600000000000001
aF6.6699999999999999
aF7.04
aF6.3399999999999999
aF7.71
aF6.5800000000000001
aF6.7000000000000002
aF6.7699999999999996
aF6.5199999999999996
aF6.8200000000000003
aF6.2999999999999998
aF6.5199999999999996
aF6.1600000000000001
aF7.4400000000000004
aF5.4699999999999998
aF7.3300000000000001
aF7.21
aF7.2699999999999996
aF7.2199999999999998
aF7.9400000000000004
aF6.6100000000000003
aF7.5800000000000001
aF7.0300000000000002
aF6.9000000000000004
aF5.8399999999999999
aF7.7199999999999998
aF7.1200000000000001
aF6.5499999999999998
aF6.79
aF6.6399999999999997
aF6.1200000000000001
aF6.5499999999999998
aF7.0800000000000001
aF7.0700000000000003
aF6.8499999999999996
aF7.4000000000000004
aF7.4500000000000002
aF6.8399999999999999
aF6.96
aF6.2400000000000002
aF5.9800000000000004
aF6.5300000000000002
aF6.7199999999999998
aF7.2000000000000002
aF6.9699999999999998
aF7.6100000000000003
aF7.4699999999999998
aF6.3499999999999996
aF6.5099999999999998
aF7.2400000000000002
aF7.6900000000000004
aF6.4800000000000004
aF6.4500000000000002
aF7.7300000000000004
aF6.6600000000000001
aF6.21
aF7.3099999999999996
aF7.7999999999999998
aF6.5
aF6.8899999999999997
aF7.0599999999999996
aF7.5199999999999996
aF7.2599999999999998
aF7.5199999999999996
aF6.2000000000000002
aF7.2000000000000002
aF6.7800000000000002
aF6.9000000000000004
aF7.0999999999999996
aF6.9500000000000002
aF7.1399999999999997
aF6.4000000000000004
aF7.4000000000000004
aF7.7300000000000004
aF7.2400000000000002
aF6.9699999999999998
aF7.1399999999999997
aF7.04
aF6.4900000000000002
aF6.4199999999999999
aF7.5700000000000003
aF6.8200000000000003
aF6.3200000000000003
aF6.29
aF6.6200000000000001
aF7.0499999999999998
aF5.9100000000000001
aF5
aF5.29
aF6.0999999999999996
aF5.7999999999999998
aF5.2800000000000002
aF5.1799999999999997
aF4.7000000000000002
aF5.4199999999999999
aF5.79
aF5.21
aF5.4800000000000004
aF7.5700000000000003
aF7.6100000000000003
aF7.29
aF6.7699999999999996
aF6.5599999999999996
aF6.6699999999999999
aF6.21
aF6.1299999999999999
aF6.1299999999999999
aF6.8200000000000003
aF5.4500000000000002
aF6.6600000000000001
aF7.7199999999999998
aF7.5899999999999999
aF7.2800000000000002
aF6.3899999999999997
aF8.2300000000000004
aF9.1699999999999999
aF8.7699999999999996
aF8.9399999999999995
aF9.6699999999999999
aF9.5899999999999999
aF7.0300000000000002
aF9.5700000000000003
aF8.25
aF8.6199999999999992
aF8.1400000000000006
aF8.6699999999999999
aF9.9600000000000009
aF8.7200000000000006
aF8.9900000000000002
aF8.9700000000000006
aF7.8399999999999999
aF9.4000000000000004
aF7.9500000000000002
aF9.7899999999999991
aF7.1600000000000001
aF8.7799999999999994
aF9.6699999999999999
aF8.3100000000000005
aF9.3900000000000006
aF10.32
aF8.9299999999999997
aF7.7599999999999998
aF9.6799999999999997
aF9.5700000000000003
aF8.4399999999999995
aF8.6899999999999995
aF9.5700000000000003
aF8.7899999999999991
aF9.3200000000000003
aF8.5999999999999996
aF9.3599999999999994
aF9.1300000000000008
aF9.3900000000000006
aF9.5700000000000003
aF9.1099999999999994
aF8.1600000000000001
aF7.8099999999999996
aF8.9399999999999995
aF8.2200000000000006
aF7.6200000000000001
aF7.8499999999999996
aF10.23
aF7.1600000000000001
aF8.9499999999999993
aF8.3800000000000008
aF8.5199999999999996
aF8.9299999999999997
aF8.2599999999999998
aF7.5800000000000001
aF8.6600000000000001
aF8.6500000000000004
aF7.9400000000000004
aF8.8200000000000003
aF7.8799999999999999
aF6.9500000000000002
aF6.0599999999999996
aF6.9199999999999999
aF7.8799999999999999
aF6.9400000000000004
aF7.6500000000000004
aF7.6100000000000003
aF7.3200000000000003
aF6.8799999999999999
aF7.0300000000000002
aF7.2000000000000002
aF6.7699999999999996
aF6.8600000000000003
aF6.8300000000000001
aF6.1900000000000004
aF6.1299999999999999
aF7.7400000000000002
aF6.9800000000000004
asS'name'
p6
(lp7
S'J000907.90+142755.8'
p8
aS'J004236.86-104922.0'
p9
aS'J012159.81-010224.3'
p10
aS'J021011.49-090335.5'
p11
aS'J024912.86-081525.7'
p12
aS'J030417.77+002827.2'
p13
aS'J032006.32+402158.6'
p14
aS'J040929.15-042902.7'
p15
aS'J073106.44+392639.9'
p16
aS'J075151.87+494851.9'
p17
aS'J075243.60+455655.9'
p18
aS'J075525.28+391109.8'
p19
aS'J075643.72+445124.1'
p20
aS'J075850.28+093520.7'
p21
aS'J075941.30+505022.9'
p22
aS'J080020.98+263648.8'
p23
aS'J080243.40+310403.3'
p24
aS'J080538.89+261003.0'
p25
aS'J080545.71+073526.2'
p26
aS'J080707.17+361400.5'
p27
aS'J080801.75+381935.3'
p28
aS'J080910.72+110619.1'
p29
aS'J081319.32+460849.6'
p30
aS'J081516.87+460430.8'
p31
aS'J081718.55+520148.1'
p32
aS'J081726.41+101210.1'
p33
aS'J082442.80+295920.9'
p34
aS'J082510.23+375919.7'
p35
aS'J082620.81+055727.8'
p36
aS'J082818.67+573912.9'
p37
aS'J082842.73+454433.2'
p38
aS'J082912.66+500652.6'
p39
aS'J083732.60+284221.9'
p40
aS'J083810.94+245342.9'
p41
aS'J084137.86+545506.8'
p42
aS'J084143.50+013149.8'
p43
aS'J084654.09+252212.3'
p44
aS'J090613.75+561015.5'
p45
aS'J090902.35+133019.4'
p46
aS'J091101.33+571247.1'
p47
aS'J091102.32+550023.3'
p48
aS'J091256.44+380538.0'
p49
aS'J091424.75+115625.5'
p50
aS'J091520.48+411918.8'
p51
aS'J091634.32+175508.3'
p52
aS'J091913.18+552755.2'
p53
aS'J092115.56+101741.0'
p54
aS'J092438.89+560743.0'
p55
aS'J092528.24+233631.0'
p56
aS'J092603.26+124403.7'
p57
aS'J092740.77+262701.1'
p58
aS'J093206.90+172703.2'
p59
aS'J093327.87+093200.0'
p60
aS'J093408.59+175644.0'
p61
aS'J093410.88+305657.9'
p62
aS'J094204.79+234106.9'
p63
aS'J094328.71+524811.7'
p64
aS'J094529.36+093610.4'
p65
aS'J094838.42+403043.7'
p66
aS'J094839.73+363649.3'
p67
aS'J094852.56+285338.4'
p68
aS'J095220.09+322826.8'
p69
aS'J095437.22+063719.5'
p70
aS'J095540.47+050236.5'
p71
aS'J095745.49+152350.6'
p72
aS'J095800.22+154722.0'
p73
aS'J095956.09+130235.9'
p74
aS'J100207.03+030327.6'
p75
aS'J100218.78+264805.7'
p76
aS'J100510.50+543255.7'
p77
aS'J100819.11+372903.4'
p78
aS'J100854.93+373929.9'
p79
aS'J101202.59+301303.0'
p80
aS'J101718.70+291432.0'
p81
aS'J101846.01+345007.9'
p82
aS'J101913.90+635759.0'
p83
aS'J102306.97+125100.3'
p84
aS'J102402.40+062942.0'
p85
aS'J102532.09+102503.9'
p86
aS'J102841.98+490418.6'
p87
aS'J103234.30+650224.9'
p88
aS'J103438.59+393828.2'
p89
aS'J103751.81+334850.1'
p90
aS'J104120.48+314039.1'
p91
aS'J104252.93+041441.1'
p92
aS'J104438.89+384527.9'
p93
aS'J104451.72+063548.6'
p94
aS'J104504.23+114508.7'
p95
aS'J105415.52+174522.5'
p96
aS'J105427.88+330943.4'
p97
aS'J105658.52+441653.1'
p98
aS'J110016.03+461615.3'
p99
aS'J110032.29+020656.0'
p100
aS'J110158.30+101740.9'
p101
aS'J110422.05+321404.5'
p102
aS'J110807.47+270602.7'
p103
aS'J110929.00+284132.9'
p104
aS'J111045.96+113641.5'
p105
aS'J111227.30+184926.8'
p106
aS'J111349.74+093510.7'
p107
aS'J111752.64+291816.1'
p108
aS'J111857.69+580323.9'
p109
aS'J112423.88+274245.3'
p110
aS'J112536.89+542256.0'
p111
aS'J112545.34+240823.9'
p112
aS'J112628.71+472453.8'
p113
aS'J112637.74+513423.2'
p114
aS'J112842.51+195313.2'
p115
aS'J112942.76+555913.1'
p116
aS'J113240.25+525701.6'
p117
aS'J113249.27+101747.2'
p118
aS'J113549.07+565708.4'
p119
aS'J114013.94+244149.4'
p120
aS'J114054.08+230744.3'
p121
aS'J114430.09+365259.9'
p122
aS'J114433.05+613201.0'
p123
aS'J114444.89+331915.4'
p124
aS'J114530.30+094352.0'
p125
aS'J114545.18+554759.9'
p126
aS'J114740.08+334720.4'
p127
aS'J115138.10+561332.1'
p128
aS'J115710.68+221746.2'
p129
aS'J120114.35-034041.1'
p130
aS'J120144.91+201941.9'
p131
aS'J120208.36+174124.8'
p132
aS'J120257.81+045045.0'
p133
aS'J120429.79+201901.0'
p134
aS'J120440.50+311100.0'
p135
aS'J120626.27+424426.0'
p136
aS'J120727.97+253610.9'
p137
aS'J120929.16+330530.1'
p138
aS'J121044.27+382010.2'
p139
aS'J121607.08+504930.4'
p140
aS'J121826.72-000750.1'
p141
aS'J121905.27+210632.6'
p142
aS'J121923.73+303002.7'
p143
aS'J122215.37+282123.7'
p144
aS'J122342.82+581446.4'
p145
aS'J122548.86+333248.7'
p146
aS'J123237.48+662452.5'
p147
aS'J123454.70+153410.9'
p148
aS'J123650.90+453902.9'
p149
aS'J123741.18+264227.5'
p150
aS'J123838.10+453414.4'
p151
aS'J124145.71+320256.2'
p152
aS'J124345.79+193846.4'
p153
aS'J124610.76+275615.9'
p154
aS'J125042.20-024928.9'
p155
aS'J125400.20+424220.0'
p156
aS'J125552.36+103055.2'
p157
aS'J125710.75+272417.6'
p158
aS'J130019.94+613918.4'
p159
aS'J130342.82+324824.5'
p160
aS'J130615.16+585733.4'
p161
aS'J130721.92+095209.3'
p162
aS'J130803.88+505227.0'
p163
aS'J131305.81+012755.9'
p164
aS'J131310.12+051942.1'
p165
aS'J131905.95+310852.7'
p166
aS'J132255.43+080941.5'
p167
aS'J132507.32+082026.4'
p168
aS'J132731.12+244641.0'
p169
aS'J132908.83+295024.1'
p170
aS'J133739.87+390916.4'
p171
aS'J134208.38+353915.5'
p172
aS'J134300.79+360956.3'
p173
aS'J134426.41+441620.0'
p174
aS'J134632.13+642325.2'
p175
aS'J134704.35+110622.6'
p176
aS'J134812.56+072340.7'
p177
aS'J134952.60+020440.0'
p178
aS'J135317.78+332927.0'
p179
aS'J140018.41+050242.2'
p180
aS'J140514.86-025901.2'
p181
aS'J141415.17+264451.4'
p182
aS'J141630.82+013708.0'
p183
aS'J141759.54+250812.7'
p184
aS'J141920.64+043623.3'
p185
aS'J142138.63+173536.2'
p186
aS'J142408.38+210518.5'
p187
aS'J142817.98+571018.6'
p188
aS'J143450.63+033842.5'
p189
aS'J143452.46+483942.7'
p190
aS'J144431.62+153643.2'
p191
aS'J145037.85+224403.6'
p192
aS'J145055.43+273442.7'
p193
aS'J145314.29+170037.9'
p194
aS'J145518.40+163253.7'
p195
aS'J145631.35+212030.0'
p196
aS'J145819.55+045451.7'
p197
aS'J150138.79+102513.4'
p198
aS'J150311.67+111027.3'
p199
aS'J150744.40+512703.0'
p200
aS'J150853.94-001149.0'
p201
aS'J151150.03+075918.7'
p202
aS'J151343.31+042143.6'
p203
aS'J151621.58+080604.6'
p204
aS'J151634.45+205837.9'
p205
aS'J151907.55+260750.6'
p206
aS'J152324.43+551855.5'
p207
aS'J152416.66+045119.0'
p208
aS'J152940.58+302909.3'
p209
aS'J153118.01+072740.3'
p210
aS'J153146.89+062257.9'
p211
aS'J153552.50+143103.8'
p212
aS'J154214.26+095654.7'
p213
aS'J154241.59+225251.0'
p214
aS'J154507.69+170955.0'
p215
aS'J154814.75+450027.7'
p216
aS'J155224.87+041726.2'
p217
aS'J155417.43+323837.9'
p218
aS'J155640.90+121717.9'
p219
aS'J155807.97+120413.0'
p220
aS'J155926.11+521235.5'
p221
aS'J160502.46+330545.0'
p222
aS'J160515.85+174227.4'
p223
aS'J160558.11+440319.5'
p224
aS'J160652.16+275539.1'
p225
aS'J160836.37+121951.5'
p226
aS'J161156.31+521117.1'
p227
aS'J161745.63+060353.5'
p228
aS'J161809.60+362002.0'
p229
aS'J161844.85+253907.6'
p230
aS'J161951.31+405847.3'
p231
aS'J162138.10+351617.3'
p232
aS'J162345.88+410456.4'
p233
aS'J162501.43+241547.3'
p234
aS'J163007.39-001136.4'
p235
aS'J163257.50+115040.1'
p236
aS'J163453.66+231242.6'
p237
aS'J165601.60+211241.1'
p238
aS'J170938.94+630635.0'
p239
aS'J171228.44+355302.6'
p240
aS'J172239.93+305252.6'
p241
aS'J204745.25-052515.6'
p242
aS'J210533.44+002829.2'
p243
aS'J212954.56+101603.8'
p244
aS'J213344.25-081615.6'
p245
aS'J213741.44+005317.0'
p246
aS'J215226.03-081024.9'
p247
aS'J215512.41+005906.7'
p248
aS'J224824.63+000920.6'
p249
aS'J231815.67+001540.2'
p250
aS'J233837.09-002810.4'
p251
aS'RGG9'
p252
aS'RGG11'
p253
aS'RGG20'
p254
aS'RGG21'
p255
aS'RGG32'
p256
aS'RGG48'
p257
aS'RGG118'
p258
aS'RGG119'
p259
aS'RGG123'
p260
aS'RGG127'
p261
aS'Pox52'
p262
aS'Mrk590'
p263
aS'Mrk79'
p264
aS'Mrk110'
p265
aS'NGC3227'
p266
aS'SBS1116+583A'
p267
aS'Arp151'
p268
aS'Mrk1310'
p269
aS'NGC4051'
p270
aS'Mrk202'
p271
aS'NGC4253'
p272
aS'NGC4395'
p273
aS'NGC5273'
p274
aS'NGC5548'
p275
aS'Mrk817'
p276
aS'Mrk290'
p277
aS'M32'
p278
aS'NGC1316'
p279
aS'NGC1332'
p280
aS'NGC1374'
p281
aS'NGC1399'
p282
aS'NGC1407'
p283
aS'NGC1550'
p284
aS'NGC2960'
p285
aS'NGC3091'
p286
aS'NGC3377'
p287
aS'NGC3379'
p288
aS'NGC3607'
p289
aS'NGC3608'
p290
aS'NGC3842'
p291
aS'NGC4261'
p292
aS'NGC4291'
p293
aS'NGC4374'
p294
aS'NGC4459'
p295
aS'NGC4472'
p296
aS'NGC4473'
p297
aS'M87'
p298
aS'NGC4486A'
p299
aS'NGC4486B'
p300
aS'NGC4649'
p301
aS'NGC4697'
p302
aS'NGC4751'
p303
aS'NGC4889'
p304
aS'NGC5077'
p305
aS'NGC5128'
p306
aS'NGC5328'
p307
aS'NGC5516'
p308
aS'NGC5576'
p309
aS'NGC5845'
p310
aS'NGC6086'
p311
aS'NGC6251'
p312
aS'NGC6861'
p313
aS'NGC7052'
p314
aS'NGC7619'
p315
aS'NGC7768'
p316
aS'IC1459'
p317
aS'A1836'
p318
aS'A3565'
p319
aS'M31'
p320
aS'M81'
p321
aS'NGC524'
p322
aS'NGC821'
p323
aS'NGC1023'
p324
aS'NGC1194'
p325
aS'NGC1277'
p326
aS'NGC2549'
p327
aS'NGC3115'
p328
aS'NGC3245'
p329
aS'NGC3585'
p330
aS'NGC3998'
p331
aS'NGC4026'
p332
aS'NGC4258'
p333
aS'NGC4342'
p334
aS'NGC4526'
p335
aS'NGC4564'
p336
aS'NGC4594'
p337
aS'NGC4596'
p338
aS'NGC7457'
p339
aS'Circinus'
p340
aS'NGC1068'
p341
aS'NGC1300'
p342
aS'NGC2273'
p343
aS'NGC2748'
p344
aS'NGC2787'
p345
aS'NGC3227'
p346
aS'NGC3368'
p347
aS'NGC3384'
p348
aS'NGC3393'
p349
aS'NGC3489'
p350
aS'NGC4388'
p351
aS'NGC4736'
p352
aS'NGC4826'
p353
aS'NGC4945'
p354
aS'NGC7582'
p355
aS'UGC3789'
p356
asS'measureType'
p357
(lp358
I0
aI0
aI0
aI0
aI0
aI0
aI0
aI0
aI0
aI0
aI0
aI0
aI0
aI0
aI0
aI0
aI0
aI0
aI0
aI0
aI0
aI0
aI0
aI0
aI0
aI0
aI0
aI0
aI0
aI0
aI0
aI0
aI0
aI0
aI0
aI0
aI0
aI0
aI0
aI0
aI0
aI0
aI0
aI0
aI0
aI0
aI0
aI0
aI0
aI0
aI0
aI0
aI0
aI0
aI0
aI0
aI0
aI0
aI0
aI0
aI0
aI0
aI0
aI0
aI0
aI0
aI0
aI0
aI0
aI0
aI0
aI0
aI0
aI0
aI0
aI0
aI0
aI0
aI0
aI0
aI0
aI0
aI0
aI0
aI0
aI0
aI0
aI0
aI0
aI0
aI0
aI0
aI0
aI0
aI0
aI0
aI0
aI0
aI0
aI0
aI0
aI0
aI0
aI0
aI0
aI0
aI0
aI0
aI0
aI0
aI0
aI0
aI0
aI0
aI0
aI0
aI0
aI0
aI0
aI0
aI0
aI0
aI0
aI0
aI0
aI0
aI0
aI0
aI0
aI0
aI0
aI0
aI0
aI0
aI0
aI0
aI0
aI0
aI0
aI0
aI0
aI0
aI0
aI0
aI0
aI0
aI0
aI0
aI0
aI0
aI0
aI0
aI0
aI0
aI0
aI0
aI0
aI0
aI0
aI0
aI0
aI0
aI0
aI0
aI0
aI0
aI0
aI0
aI0
aI0
aI0
aI0
aI0
aI0
aI0
aI0
aI0
aI0
aI0
aI0
aI0
aI0
aI0
aI0
aI0
aI0
aI0
aI0
aI0
aI0
aI0
aI0
aI0
aI0
aI0
aI0
aI0
aI0
aI0
aI0
aI0
aI0
aI0
aI0
aI0
aI0
aI0
aI0
aI0
aI0
aI0
aI0
aI0
aI0
aI0
aI0
aI0
aI0
aI0
aI0
aI0
aI0
aI0
aI0
aI0
aI0
aI0
aI0
aI0
aI0
aI0
aI0
aI0
aI0
aI0
aI0
aI0
aI0
aI0
aI0
aI0
aI0
aI0
aI0
aI1
aI1
aI1
aI1
aI1
aI1
aI1
aI1
aI1
aI1
aI1
aI2
aI2
aI2
aI2
aI2
aI2
aI2
aI2
aI2
aI2
aI2
aI2
aI2
aI2
aI2
aI3
aI3
aI3
aI3
aI3
aI3
aI3
aI3
aI3
aI3
aI3
aI3
aI3
aI3
aI3
aI3
aI3
aI3
aI3
aI3
aI3
aI3
aI3
aI3
aI3
aI3
aI3
aI3
aI3
aI3
aI3
aI3
aI3
aI3
aI3
aI3
aI3
aI3
aI3
aI3
aI3
aI3
aI3
aI3
aI3
aI3
aI3
aI3
aI3
aI3
aI3
aI3
aI3
aI3
aI3
aI3
aI3
aI3
aI3
aI3
aI3
aI3
aI3
aI3
aI3
aI3
aI3
aI3
aI3
aI3
aI3
aI3
aI3
aI3
aI3
aI3
aI3
aI3
aI3
as.